(lp0
(S'home'
p1
(lp2
F0.0
aF0.0
aF0.0
aF0.0
aF0.0
aF0.0
aF0.0
aI0
tp3
a(S''
p4
g4
I0
tp5
a(g4
(lp6
F0.0
aF-48.0
aF-90.0
aF0.0
aF0.0
aF0.0
aF0.0
aI1
tp7
a(g4
(lp8
F0.0
aF-48.0
aF90.0
aF0.0
aF0.0
aF0.0
aF0.0
aI1
tp9
a(g4
g4
I0
tp10
a(g4
g4
I0
tp11
a(g4
g4
I0
tp12
a(g4
g4
I0
tp13
a(g4
g4
I0
tp14
a(g4
g4
I0
tp15
a.