(lp0
(S'home'
p1
(lp2
F0.0
aF0.0
aF0.0
aF0.0
aF0.0
aF0.0
aF0.0
aI0
tp3
a(S'pregrasp ball'
p4
(lp5
F60.0
aF-28.0
aF38.0
aF-35.0
aF44.0
aF-37.0
aF36.0
aI1
tp6
a(S'grip ball'
p7
(lp8
F60.0
aF-15.0
aF38.0
aF-16.0
aF44.0
aF-16.0
aF36.0
aI1
tp9
a(S'release ball'
p10
(lp11
F60.0
aF-28.0
aF38.0
aF-35.0
aF44.0
aF-37.0
aF36.0
aI1
tp12
a(S''
p13
g13
I0
tp14
a(g13
g13
I0
tp15
a(g13
g13
I0
tp16
a(g13
g13
I0
tp17
a(g13
g13
I0
tp18
a(g13
g13
I0
tp19
a.