(lp0
(S'home'
p1
(lp2
F0.0
aF0.0
aF0.0
aF0.0
aF0.0
aF0.0
aF0.0
aI0
tp3
a(S'pregrasp bottle'
p4
(lp5
F0.0
aF-20.0
aF15.0
aF-19.0
aF19.0
aF-21.0
aF12.0
aI1
tp6
a(S'grip bottle'
p7
(lp8
F0.0
aF-19.0
aF73.0
aF-18.0
aF73.0
aF-20.0
aF69.0
aI1
tp9
a(S'release bottle'
p10
(lp11
F0.0
aF-30.0
aF9.0
aF-27.0
aF16.0
aF-32.0
aF12.0
aI1
tp12
a(S''
p13
g13
I0
tp14
a(g13
g13
I0
tp15
a(g13
g13
I0
tp16
a(g13
g13
I0
tp17
a(g13
g13
I0
tp18
a(g13
g13
I0
tp19
a.