(lp0
(S'home'
p1
(lp2
F0.0
aF0.0
aF0.0
aF0.0
aF0.0
aF0.0
aF0.0
aI1
tp3
a(S'pregrasp red'
p4
(lp5
F60.0
aF-23.0
aF0.0
aF-16.0
aF2.0
aF-21.0
aF0.0
aI1
tp6
a(S'grasp red'
p7
(lp8
F60.0
aF-23.0
aF67.0
aF-14.0
aF58.0
aF-19.0
aF64.0
aI1
tp9
a(S'open red'
p10
(lp11
F60.0
aF-74.0
aF18.0
aF-58.0
aF-20.0
aF-75.0
aF37.0
aI1
tp12
a(S''
p13
g13
I1
tp14
a(g13
g13
I1
tp15
a(g13
g13
I0
tp16
a(g13
g13
I0
tp17
a(g13
g13
I0
tp18
a(g13
g13
I0
tp19
a.