(lp0
(S'home'
p1
(lp2
F0.0
aF0.0
aF0.0
aF0.0
aF0.0
aF0.0
aF0.0
aI1
tp3
a(S''
p4
(lp5
F68.0
aF-26.0
aF-42.0
aF-11.0
aF-42.0
aF-26.0
aF-38.0
aI1
tp6
a(g4
(lp7
F25.0
aF-46.0
aF-42.0
aF-43.0
aF-42.0
aF-44.0
aF-38.0
aI1
tp8
a(g4
(lp9
F46.0
aF-46.0
aF-2.0
aF-43.0
aF2.0
aF-44.0
aF-2.0
aI1
tp10
a(g4
g4
I0
tp11
a(g4
g4
I0
tp12
a(g4
g4
I0
tp13
a(g4
g4
I0
tp14
a(g4
g4
I0
tp15
a(g4
g4
I0
tp16
a.