(lp0
(S'home'
p1
(lp2
F0.0
aF0.0
aF0.0
aF0.0
aF0.0
aF0.0
aF0.0
aI0
tp3
a(S''
p4
g4
I0
tp5
a(S'worm1'
p6
(lp7
F0.0
aF61.0
aF27.0
aF-23.0
aF0.0
aF-90.0
aF-90.0
aI1
tp8
a(S'worm2'
p9
(lp10
F0.0
aF61.0
aF27.0
aF45.0
aF45.0
aF-90.0
aF-90.0
aI1
tp11
a(S'worm3'
p12
(lp13
F0.0
aF61.0
aF27.0
aF-28.0
aF45.0
aF-90.0
aF-90.0
aI1
tp14
a(S'worm4'
p15
(lp16
F0.0
aF61.0
aF27.0
aF-22.0
aF0.0
aF-90.0
aF-90.0
aI1
tp17
a(g4
g4
I0
tp18
a(g4
g4
I0
tp19
a(g4
g4
I0
tp20
a(g4
g4
I0
tp21
a.